(dp0
S'METTS MARK'
p1
(dp2
S'salary'
p3
F365788.0
sS'message_in_out_ratio'
p4
F0.03593556381660471
sS'bonus'
p5
F600000.0
sS'from_message_poi_ratio'
p6
F1.3103448275862069
sS'total_stock_value'
p7
F585062.0
sS'shared_receipt_with_poi'
p8
I702
sS'exercised_stock_options'
p9
F0.0
sS'to_message_poi_ratio'
p10
F0.0012391573729863693
sS'poi'
p11
I00
sS'deferred_income'
p12
F0.0
sS'restricted_stock'
p13
F585062.0
ssS'CALGER CHRISTOPHER F'
p14
(dp15
g3
F240189.0
sg4
F0.05542725173210162
sg5
F1250000.0
sg6
F1.3819444444444444
sg7
F126027.0
sg8
I2188
sg9
F0.0
sg10
F0.00962278675904542
sg11
I01
sg12
F-262500.0
sg13
F126027.0
ssS'CORDES WILLIAM R'
p16
(dp17
g3
F0.0
sg4
F0.015706806282722512
sg5
F0.0
sg6
F0.8333333333333334
sg7
F1038185.0
sg8
I58
sg9
F651850.0
sg10
F0.0
sg11
I00
sg12
F0.0
sg13
F386335.0
ssS'BHATNAGAR SANJAY'
p18
(dp19
g3
F0.0
sg4
F0.055449330783938815
sg5
F0.0
sg6
F0.0
sg7
F0.0
sg8
I463
sg9
F2604490.0
sg10
F0.0019120458891013384
sg11
I00
sg12
F0.0
sg13
F-2604490.0
ssS'HANNON KEVIN P'
p20
(dp21
g3
F243293.0
sg4
F0.03062200956937799
sg5
F1500000.0
sg6
F1.0
sg7
F6391065.0
sg8
I1035
sg9
F5538001.0
sg10
F0.020095693779904306
sg11
I01
sg12
F-3117011.0
sg13
F853064.0
ssS'LEWIS RICHARD'
p22
(dp23
g3
F0.0
sg4
F0.0273109243697479
sg5
F0.0
sg6
F0.38461538461538464
sg7
F850477.0
sg8
I739
sg9
F850477.0
sg10
F0.0
sg11
I00
sg12
F0.0
sg13
F0.0
ssS'HAYES ROBERT E'
p24
(dp25
g3
F0.0
sg4
F0.023809523809523808
sg5
F0.0
sg6
F1.3333333333333333
sg7
F151418.0
sg8
I50
sg9
F0.0
sg10
F0.0
sg11
I00
sg12
F0.0
sg13
F151418.0
ssS'FITZGERALD JAY L'
p26
(dp27
g3
F199157.0
sg4
F0.017094017094017096
sg5
F350000.0
sg6
F0.0625
sg7
F1621236.0
sg8
I723
sg9
F664461.0
sg10
F0.008547008547008548
sg11
I00
sg12
F0.0
sg13
F956775.0
ssS'RIEKER PAULA H'
p28
(dp29
g3
F249201.0
sg4
F0.061746987951807226
sg5
F700000.0
sg6
F0.4268292682926829
sg7
F1918887.0
sg8
I1258
sg9
F1635238.0
sg10
F0.03614457831325301
sg11
I01
sg12
F-100000.0
sg13
F283649.0
ssS'BUCHANAN HAROLD G'
p30
(dp31
g3
F248017.0
sg4
F0.11488970588235294
sg5
F500000.0
sg6
F0.0
sg7
F1014505.0
sg8
I23
sg9
F825464.0
sg10
F0.0
sg11
I00
sg12
F0.0
sg13
F189041.0
ssS'MEYER ROCKFORD G'
p32
(dp33
g3
F0.0
sg4
F0.1206896551724138
sg5
F0.0
sg6
F0.0
sg7
F955873.0
sg8
I22
sg9
F493489.0
sg10
F0.0
sg11
I00
sg12
F0.0
sg13
F462384.0
ssS'LEFF DANIEL P'
p34
(dp35
g3
F273746.0
sg4
F0.02232459248759745
sg5
F1000000.0
sg6
F1.0634920634920635
sg7
F360528.0
sg8
I2672
sg9
F0.0
sg10
F0.004961020552799433
sg11
I00
sg12
F0.0
sg13
F360528.0
ssS'REDMOND BRIAN L'
p36
(dp37
g3
F96840.0
sg4
F0.1322561340514662
sg5
F0.0
sg6
F0.9230769230769231
sg7
F7890324.0
sg8
I1063
sg9
F7509039.0
sg10
F0.029323758228605626
sg11
I00
sg12
F0.0
sg13
F381285.0
ssS'DURAN WILLIAM D'
p38
(dp39
g3
F210692.0
sg4
F0.01327433628318584
sg5
F750000.0
sg6
F8.833333333333334
sg7
F1640910.0
sg8
I599
sg9
F1451869.0
sg10
F0.00331858407079646
sg11
I00
sg12
F0.0
sg13
F189041.0
ssS'SHELBY REX'
p40
(dp41
g3
F211844.0
sg4
F0.17333333333333334
sg5
F200000.0
sg6
F0.3333333333333333
sg7
F2493616.0
sg8
I91
sg9
F1624396.0
sg10
F0.06222222222222222
sg11
I01
sg12
F-4167.0
sg13
F869220.0
ssS'PIPER GREGORY F'
p42
(dp43
g3
F197091.0
sg4
F0.17932148626817448
sg5
F400000.0
sg6
F0.2747747747747748
sg7
F880290.0
sg8
I742
sg9
F880290.0
sg10
F0.03877221324717286
sg11
I00
sg12
F-33333.0
sg13
F409554.0
ssS'HUMPHREY GENE E'
p44
(dp45
g3
F130724.0
sg4
F0.1328125
sg5
F0.0
sg6
F0.5882352941176471
sg7
F2282768.0
sg8
I119
sg9
F2282768.0
sg10
F0.1328125
sg11
I00
sg12
F0.0
sg13
F0.0
ssS'JACKSON CHARLENE R'
p46
(dp47
g3
F288558.0
sg4
F0.21705426356589147
sg5
F250000.0
sg6
F0.44642857142857145
sg7
F725735.0
sg8
I117
sg9
F185063.0
sg10
F0.07364341085271318
sg11
I00
sg12
F0.0
sg13
F540672.0
ssS'THORN TERENCE H'
p48
(dp49
g3
F222093.0
sg4
F0.15413533834586465
sg5
F0.0
sg6
F0.0
sg7
F4817796.0
sg8
I73
sg9
F4452476.0
sg10
F0.0
sg11
I00
sg12
F0.0
sg13
F365320.0
ssS'MURRAY JULIA H'
p50
(dp51
g3
F229284.0
sg4
F0.02052919708029197
sg5
F400000.0
sg6
F0.24444444444444444
sg7
F597461.0
sg8
I395
sg9
F400478.0
sg10
F0.0009124087591240876
sg11
I00
sg12
F0.0
sg13
F196983.0
ssS'GARLAND C KEVIN'
p52
(dp53
g3
F231946.0
sg4
F0.21052631578947367
sg5
F850000.0
sg6
F0.22727272727272727
sg7
F896153.0
sg8
I178
sg9
F636246.0
sg10
F0.1291866028708134
sg11
I00
sg12
F0.0
sg13
F259907.0
ssS'BANNANTINE JAMES M'
p54
(dp55
g3
F477.0
sg4
F0.05123674911660778
sg5
F0.0
sg6
F1.3448275862068966
sg7
F5243487.0
sg8
I465
sg9
F4046157.0
sg10
F0.0
sg11
I00
sg12
F-5104.0
sg13
F1757552.0
ssS'BLACHMAN JEREMY M'
p56
(dp57
g3
F248546.0
sg4
F0.0056565656565656566
sg5
F850000.0
sg6
F1.7857142857142858
sg7
F954354.0
sg8
I2326
sg9
F765313.0
sg10
F0.0008080808080808081
sg11
I00
sg12
F0.0
sg13
F189041.0
ssS'DODSON KEITH'
p58
(dp59
g3
F221003.0
sg4
F0.07954545454545454
sg5
F70000.0
sg6
F0.7142857142857143
sg7
F0.0
sg8
I114
sg9
F0.0
sg10
F0.017045454545454544
sg11
I00
sg12
F0.0
sg13
F0.0
ssS'POWERS WILLIAM'
p60
(dp61
g3
F0.0
sg4
F0.039816232771822356
sg5
F0.0
sg6
F0.0
sg7
F0.0
sg8
I12
sg9
F0.0
sg10
F0.0
sg11
I00
sg12
F-17500.0
sg13
F0.0
ssS'BOWEN JR RAYMOND M'
p62
(dp63
g3
F278601.0
sg4
F0.014531754574811625
sg5
F1350000.0
sg6
F5.185185185185185
sg7
F252055.0
sg8
I1593
sg9
F0.0
sg10
F0.008073196986006458
sg11
I01
sg12
F-833.0
sg13
F252055.0
ssS'SUNDE MARTIN'
p64
(dp65
g3
F257486.0
sg4
F0.014355874574990555
sg5
F700000.0
sg6
F0.9736842105263158
sg7
F698920.0
sg8
I2565
sg9
F0.0
sg10
F0.004911220249338874
sg11
I00
sg12
F0.0
sg13
F698920.0
ssS'GIBBS DANA R'
p66
(dp67
g3
F0.0
sg4
F0.07100591715976332
sg5
F0.0
sg6
F0.0
sg7
F2218275.0
sg8
I23
sg9
F2218275.0
sg10
F0.0
sg11
I00
sg12
F0.0
sg13
F0.0
ssS'COLWELL WESLEY'
p68
(dp69
g3
F288542.0
sg4
F0.022753128555176336
sg5
F1200000.0
sg6
F6.0
sg7
F698242.0
sg8
I1132
sg9
F0.0
sg10
F0.006257110352673493
sg11
I01
sg12
F-144062.0
sg13
F698242.0
ssS'MULLER MARK S'
p70
(dp71
g3
F251654.0
sg4
F0.11764705882352941
sg5
F1100000.0
sg6
F0.75
sg7
F1416848.0
sg8
I114
sg9
F1056320.0
sg10
F0.0
sg11
I00
sg12
F-719000.0
sg13
F360528.0
ssS'WASAFF GEORGE'
p72
(dp73
g3
F259996.0
sg4
F0.075
sg5
F325000.0
sg6
F0.7333333333333333
sg7
F2056427.0
sg8
I337
sg9
F1668260.0
sg10
F0.0175
sg11
I00
sg12
F-583325.0
sg13
F388167.0
ssS'DIETRICH JANET R'
p74
(dp75
g3
F250100.0
sg4
F0.024494556765163298
sg5
F600000.0
sg6
F4.841269841269841
sg7
F1865087.0
sg8
I1902
sg9
F1550019.0
sg10
F0.005443234836702955
sg11
I00
sg12
F0.0
sg13
F315068.0
ssS'DERRICK JR. JAMES V'
p76
(dp77
g3
F492375.0
sg4
F0.4167812929848693
sg5
F800000.0
sg6
F0.0704070407040704
sg7
F8831913.0
sg8
I1401
sg9
F8831913.0
sg10
F0.009170105456212746
sg11
I00
sg12
F-1284000.0
sg13
F1787380.0
ssS'FREVERT MARK A'
p78
(dp79
g3
F1060932.0
sg4
F0.006412213740458015
sg5
F2000000.0
sg6
F11.523809523809524
sg7
F14622185.0
sg8
I2979
sg9
F10433518.0
sg10
F0.00183206106870229
sg11
I00
sg12
F-3367011.0
sg13
F4188667.0
ssS'RICE KENNETH D'
p80
(dp81
g3
F420636.0
sg4
F0.019889502762430938
sg5
F1750000.0
sg6
F2.3333333333333335
sg7
F22542539.0
sg8
I864
sg9
F19794175.0
sg10
F0.004419889502762431
sg11
I01
sg12
F-3504386.0
sg13
F2748364.0
ssS'DEFFNER JOSEPH M'
p82
(dp83
g3
F206121.0
sg4
F0.10364145658263306
sg5
F600000.0
sg6
F1.554054054054054
sg7
F159211.0
sg8
I552
sg9
F17378.0
sg10
F0.0056022408963585435
sg11
I00
sg12
F0.0
sg13
F141833.0
ssS'SHERRIFF JOHN R'
p84
(dp85
g3
F428780.0
sg4
F0.028867273297772198
sg5
F1500000.0
sg6
F0.30434782608695654
sg7
F3128982.0
sg8
I2103
sg9
F1835558.0
sg10
F0.0072168183244430495
sg11
I00
sg12
F0.0
sg13
F1293424.0
ssS'WALLS JR ROBERT H'
p86
(dp87
g3
F357091.0
sg4
F0.21758569299552907
sg5
F850000.0
sg6
F0.11643835616438356
sg7
F5898997.0
sg8
I215
sg9
F4346544.0
sg10
F0.0
sg11
I00
sg12
F0.0
sg13
F1552453.0
ssS'SKILLING JEFFREY K'
p88
(dp89
g3
F1111258.0
sg4
F0.02977667493796526
sg5
F5600000.0
sg6
F0.8148148148148148
sg7
F26093672.0
sg8
I2042
sg9
F19250000.0
sg10
F0.008271298593879239
sg11
I01
sg12
F0.0
sg13
F6843672.0
ssS'COX DAVID'
p90
(dp91
g3
F314288.0
sg4
F0.3235294117647059
sg5
F800000.0
sg6
F0.0
sg7
F495633.0
sg8
I71
sg9
F117551.0
sg10
F0.0392156862745098
sg11
I00
sg12
F-41250.0
sg13
F378082.0
ssS'MCMAHON JEFFREY'
p92
(dp93
g3
F370448.0
sg4
F0.02038216560509554
sg5
F2600000.0
sg6
F1.2083333333333333
sg7
F1662855.0
sg8
I2228
sg9
F1104054.0
sg10
F0.011040339702760084
sg11
I00
sg12
F0.0
sg13
F558801.0
ssS'PIRO JIM'
p94
(dp95
g3
F0.0
sg4
F0.27586206896551724
sg5
F0.0
sg6
F0.0
sg7
F47304.0
sg8
I3
sg9
F0.0
sg10
F0.017241379310344827
sg11
I00
sg12
F0.0
sg13
F47304.0
ssS'BERGSIEKER RICHARD P'
p96
(dp97
g3
F187922.0
sg4
F0.15404699738903394
sg5
F250000.0
sg6
F0.06779661016949153
sg7
F659249.0
sg8
I233
sg9
F0.0
sg10
F0.0
sg11
I00
sg12
F-485813.0
sg13
F659249.0
ssS'MCCARTY DANNY J'
p98
(dp99
g3
F0.0
sg4
F0.15003489183531055
sg5
F0.0
sg6
F0.11627906976744186
sg7
F758931.0
sg8
I508
sg9
F664375.0
sg10
F0.0013956734124214933
sg11
I00
sg12
F0.0
sg13
F94556.0
ssS'MORAN MICHAEL P'
p100
(dp101
g3
F0.0
sg4
F0.028273809523809524
sg5
F0.0
sg6
F0.0
sg7
F221141.0
sg8
I127
sg9
F59539.0
sg10
F0.0
sg11
I00
sg12
F0.0
sg13
F161602.0
ssS'BIBI PHILIPPE A'
p102
(dp103
g3
F213625.0
sg4
F0.024891101431238332
sg5
F1000000.0
sg6
F0.575
sg7
F1843816.0
sg8
I1336
sg9
F1465734.0
sg10
F0.004978220286247666
sg11
I00
sg12
F0.0
sg13
F378082.0
ssS'FALLON JAMES B'
p104
(dp105
g3
F304588.0
sg4
F0.042735042735042736
sg5
F2500000.0
sg6
F0.56
sg7
F2332399.0
sg8
I1604
sg9
F940257.0
sg10
F0.021082621082621083
sg11
I00
sg12
F0.0
sg13
F1392142.0
ssS'KOENIG MARK E'
p106
(dp107
g3
F309946.0
sg4
F0.025695029486099412
sg5
F700000.0
sg6
F0.8688524590163934
sg7
F1920055.0
sg8
I2271
sg9
F671737.0
sg10
F0.006318449873631003
sg11
I01
sg12
F0.0
sg13
F1248318.0
ssS'PICKERING MARK R'
p108
(dp109
g3
F655037.0
sg4
F0.07461024498886415
sg5
F300000.0
sg6
F0.1044776119402985
sg7
F28798.0
sg8
I728
sg9
F28798.0
sg10
F0.0
sg11
I00
sg12
F0.0
sg13
F0.0
ssS'IZZO LAWRENCE L'
p110
(dp111
g3
F85274.0
sg4
F0.038306451612903226
sg5
F0.0
sg6
F1.4736842105263157
sg7
F5819980.0
sg8
I437
sg9
F2165172.0
sg10
F0.010080645161290322
sg11
I00
sg12
F0.0
sg13
F3654808.0
ssS'UMANOFF ADAM S'
p112
(dp113
g3
F288589.0
sg4
F0.16216216216216217
sg5
F788750.0
sg6
F0.6666666666666666
sg7
F0.0
sg8
I41
sg9
F0.0
sg10
F0.0
sg11
I00
sg12
F0.0
sg13
F0.0
ssS'FOY JOE'
p114
(dp115
g3
F0.0
sg4
F0.22807017543859648
sg5
F0.0
sg6
F0.0
sg7
F343434.0
sg8
I2
sg9
F343434.0
sg10
F0.0
sg11
I00
sg12
F0.0
sg13
F0.0
ssS'DONAHUE JR JEFFREY M'
p116
(dp117
g3
F278601.0
sg4
F0.025433526011560695
sg5
F800000.0
sg6
F8.545454545454545
sg7
F1080988.0
sg8
I772
sg9
F765920.0
sg10
F0.012716763005780347
sg11
I00
sg12
F-300000.0
sg13
F315068.0
ssS'TILNEY ELIZABETH A'
p118
(dp119
g3
F247338.0
sg4
F0.041304347826086954
sg5
F300000.0
sg6
F0.5263157894736842
sg7
F1168042.0
sg8
I379
sg9
F591250.0
sg10
F0.02391304347826087
sg11
I00
sg12
F-575000.0
sg13
F576792.0
ssS'MARTIN AMANDA K'
p120
(dp121
g3
F349487.0
sg4
F0.15111695137976347
sg5
F0.0
sg6
F0.034782608695652174
sg7
F2070306.0
sg8
I477
sg9
F2070306.0
sg10
F0.0
sg11
I00
sg12
F0.0
sg13
F0.0
ssS'SHERRICK JEFFREY B'
p122
(dp123
g3
F0.0
sg4
F0.040783034257748776
sg5
F0.0
sg6
F1.56
sg7
F1832468.0
sg8
I583
sg9
F1426469.0
sg10
F0.02936378466557912
sg11
I00
sg12
F0.0
sg13
F405999.0
ssS'LAY KENNETH L'
p124
(dp125
g3
F1072321.0
sg4
F0.008424994149309618
sg5
F7000000.0
sg6
F3.4166666666666665
sg7
F49110078.0
sg8
I2411
sg9
F34348384.0
sg10
F0.003744441844137608
sg11
I01
sg12
F-300000.0
sg13
F14761694.0
ssS'FOWLER PEGGY'
p126
(dp127
g3
F0.0
sg4
F0.06963249516441006
sg5
F0.0
sg6
F0.0
sg7
F1884748.0
sg8
I10
sg9
F1324578.0
sg10
F0.0
sg11
I00
sg12
F0.0
sg13
F560170.0
ssS'OLSON CINDY K'
p128
(dp129
g3
F329078.0
sg4
F0.04391891891891892
sg5
F750000.0
sg6
F0.38461538461538464
sg7
F2606763.0
sg8
I856
sg9
F1637034.0
sg10
F0.01266891891891892
sg11
I00
sg12
F0.0
sg13
F969729.0
ssS'HAUG DAVID L'
p130
(dp131
g3
F0.0
sg4
F0.03315881326352531
sg5
F0.0
sg6
F0.21052631578947367
sg7
F2217299.0
sg8
I471
sg9
F0.0
sg10
F0.012216404886561954
sg11
I00
sg12
F0.0
sg13
F2217299.0
ssS'MCDONALD REBECCA'
p132
(dp133
g3
F0.0
sg4
F0.0145413870246085
sg5
F0.0
sg6
F4.153846153846154
sg7
F1691366.0
sg8
I720
sg9
F757301.0
sg10
F0.0011185682326621924
sg11
I00
sg12
F0.0
sg13
F934065.0
ssS'CAUSEY RICHARD A'
p134
(dp135
g3
F415189.0
sg4
F0.025898520084566595
sg5
F1000000.0
sg6
F1.183673469387755
sg7
F2502063.0
sg8
I1585
sg9
F0.0
sg10
F0.006342494714587738
sg11
I01
sg12
F-235000.0
sg13
F2502063.0
ssS'SHARP VICTORIA T'
p136
(dp137
g3
F248146.0
sg4
F0.04336734693877551
sg5
F600000.0
sg6
F0.17647058823529413
sg7
F494136.0
sg8
I2477
sg9
F281073.0
sg10
F0.001913265306122449
sg11
I00
sg12
F0.0
sg13
F213063.0
ssS'HICKERSON GARY J'
p138
(dp139
g3
F211788.0
sg4
F0.020454545454545454
sg5
F1700000.0
sg6
F1.4814814814814814
sg7
F441096.0
sg8
I900
sg9
F0.0
sg10
F0.0007575757575757576
sg11
I00
sg12
F0.0
sg13
F441096.0
ssS'MCCLELLAN GEORGE'
p140
(dp141
g3
F263413.0
sg4
F0.02809633027522936
sg5
F900000.0
sg6
F1.0612244897959184
sg7
F947861.0
sg8
I1469
sg9
F506765.0
sg10
F0.0
sg11
I00
sg12
F-125000.0
sg13
F441096.0
ssS'TAYLOR MITCHELL S'
p142
(dp143
g3
F265214.0
sg4
F0.054409005628517824
sg5
F600000.0
sg6
F0.0
sg7
F3745048.0
sg8
I300
sg9
F3181250.0
sg10
F0.0
sg11
I00
sg12
F0.0
sg13
F563798.0
ssS'BROWN MICHAEL'
p144
(dp145
g3
F0.0
sg4
F0.02759084791386272
sg5
F0.0
sg6
F0.3170731707317073
sg7
F0.0
sg8
I761
sg9
F0.0
sg10
F0.0006729475100942127
sg11
I00
sg12
F0.0
sg13
F0.0
ssS'HUGHES JAMES A'
p146
(dp147
g3
F0.0
sg4
F0.04728789986091794
sg5
F0.0
sg6
F1.0294117647058822
sg7
F1118394.0
sg8
I589
sg9
F754966.0
sg10
F0.006954102920723227
sg11
I00
sg12
F0.0
sg13
F363428.0
ssS'GLISAN JR BEN F'
p148
(dp149
g3
F274975.0
sg4
F0.018327605956471937
sg5
F600000.0
sg6
F3.25
sg7
F778546.0
sg8
I874
sg9
F384728.0
sg10
F0.006872852233676976
sg11
I01
sg12
F0.0
sg13
F393818.0
ssS'CARTER REBECCA C'
p150
(dp151
g3
F261809.0
sg4
F0.04807692307692308
sg5
F300000.0
sg6
F1.9333333333333333
sg7
F0.0
sg8
I196
sg9
F0.0
sg10
F0.022435897435897436
sg11
I00
sg12
F-159792.0
sg13
F307301.0
ss.