(dp0
S'METTS MARK'
p1
(dp2
S'to_messages'
p3
I807
sS'deferral_payments'
p4
F0.0
sS'to_message_poi_ratio'
p5
F0.0012391573729863693
sS'expenses'
p6
F94299.0
sS'poi'
p7
I00
sS'long_term_incentive'
p8
F0.0
sS'email_address'
p9
S'mark.metts@enron.com'
p10
sS'from_poi_to_this_person'
p11
I38
sS'deferred_income'
p12
F0.0
sS'restricted_stock_deferred'
p13
F0.0
sS'shared_receipt_with_poi'
p14
I702
sS'loan_advances'
p15
F0.0
sS'from_messages'
p16
I29
sS'other'
p17
F1740.0
sS'director_fees'
p18
F0.0
sS'message_in_out_ratio'
p19
F0.03593556381660471
sS'bonus'
p20
F600000.0
sS'total_stock_value'
p21
F585062.0
sS'from_this_person_to_poi'
p22
I1
sS'restricted_stock'
p23
F585062.0
sS'salary'
p24
F365788.0
sS'total_payments'
p25
F1061827.0
sS'exercised_stock_options'
p26
F0.0
sS'from_message_poi_ratio'
p27
F1.3103448275862069
ssS'CALGER CHRISTOPHER F'
p28
(dp29
g3
I2598
sg4
F0.0
sg5
F0.00962278675904542
sg6
F35818.0
sg7
I01
sg8
F375304.0
sg9
S'christopher.calger@enron.com'
p30
sg11
I199
sg12
F-262500.0
sg13
F0.0
sg14
I2188
sg15
F0.0
sg16
I144
sg17
F486.0
sg18
F0.0
sg19
F0.05542725173210162
sg20
F1250000.0
sg21
F126027.0
sg22
I25
sg23
F126027.0
sg24
F240189.0
sg25
F1639297.0
sg26
F0.0
sg27
F1.3819444444444444
ssS'CORDES WILLIAM R'
p31
(dp32
g3
I764
sg4
F0.0
sg5
F0.0
sg6
F0.0
sg7
I00
sg8
F0.0
sg9
S'bill.cordes@enron.com'
p33
sg11
I10
sg12
F0.0
sg13
F0.0
sg14
I58
sg15
F0.0
sg16
I12
sg17
F0.0
sg18
F0.0
sg19
F0.015706806282722512
sg20
F0.0
sg21
F1038185.0
sg22
I0
sg23
F386335.0
sg24
F0.0
sg25
F0.0
sg26
F651850.0
sg27
F0.8333333333333334
ssS'BHATNAGAR SANJAY'
p34
(dp35
g3
I523
sg4
F0.0
sg5
F0.0019120458891013384
sg6
F0.0
sg7
I00
sg8
F0.0
sg9
S'sanjay.bhatnagar@enron.com'
p36
sg11
I0
sg12
F0.0
sg13
F15456290.0
sg14
I463
sg15
F0.0
sg16
I29
sg17
F137864.0
sg18
F137864.0
sg19
F0.055449330783938815
sg20
F0.0
sg21
F0.0
sg22
I1
sg23
F-2604490.0
sg24
F0.0
sg25
F15456290.0
sg26
F2604490.0
sg27
F0.0
ssS'HANNON KEVIN P'
p37
(dp38
g3
I1045
sg4
F0.0
sg5
F0.020095693779904306
sg6
F34039.0
sg7
I01
sg8
F1617011.0
sg9
S'kevin.hannon@enron.com'
p39
sg11
I32
sg12
F-3117011.0
sg13
F0.0
sg14
I1035
sg15
F0.0
sg16
I32
sg17
F11350.0
sg18
F0.0
sg19
F0.03062200956937799
sg20
F1500000.0
sg21
F6391065.0
sg22
I21
sg23
F853064.0
sg24
F243293.0
sg25
F288682.0
sg26
F5538001.0
sg27
F1.0
ssS'LEWIS RICHARD'
p40
(dp41
g3
I952
sg4
F0.0
sg5
F0.0
sg6
F0.0
sg7
I00
sg8
F0.0
sg9
S'richard.lewis@enron.com'
p42
sg11
I10
sg12
F0.0
sg13
F0.0
sg14
I739
sg15
F0.0
sg16
I26
sg17
F0.0
sg18
F0.0
sg19
F0.0273109243697479
sg20
F0.0
sg21
F850477.0
sg22
I0
sg23
F0.0
sg24
F0.0
sg25
F0.0
sg26
F850477.0
sg27
F0.38461538461538464
ssS'HAYES ROBERT E'
p43
(dp44
g3
I504
sg4
F7961.0
sg5
F0.0
sg6
F0.0
sg7
I00
sg8
F0.0
sg9
S'robert.hayes@enron.com'
p45
sg11
I16
sg12
F0.0
sg13
F0.0
sg14
I50
sg15
F0.0
sg16
I12
sg17
F0.0
sg18
F0.0
sg19
F0.023809523809523808
sg20
F0.0
sg21
F151418.0
sg22
I0
sg23
F151418.0
sg24
F0.0
sg25
F7961.0
sg26
F0.0
sg27
F1.3333333333333333
ssS'FITZGERALD JAY L'
p46
(dp47
g3
I936
sg4
F0.0
sg5
F0.008547008547008548
sg6
F23870.0
sg7
I00
sg8
F556416.0
sg9
S'jay.fitzgerald@enron.com'
p48
sg11
I1
sg12
F0.0
sg13
F0.0
sg14
I723
sg15
F0.0
sg16
I16
sg17
F285414.0
sg18
F0.0
sg19
F0.017094017094017096
sg20
F350000.0
sg21
F1621236.0
sg22
I8
sg23
F956775.0
sg24
F199157.0
sg25
F1414857.0
sg26
F664461.0
sg27
F0.0625
ssS'RIEKER PAULA H'
p49
(dp50
g3
I1328
sg4
F214678.0
sg5
F0.03614457831325301
sg6
F33271.0
sg7
I01
sg8
F0.0
sg9
S'paula.rieker@enron.com'
p51
sg11
I35
sg12
F-100000.0
sg13
F0.0
sg14
I1258
sg15
F0.0
sg16
I82
sg17
F1950.0
sg18
F0.0
sg19
F0.061746987951807226
sg20
F700000.0
sg21
F1918887.0
sg22
I48
sg23
F283649.0
sg24
F249201.0
sg25
F1099100.0
sg26
F1635238.0
sg27
F0.4268292682926829
ssS'BUCHANAN HAROLD G'
p52
(dp53
g3
I1088
sg4
F0.0
sg5
F0.0
sg6
F600.0
sg7
I00
sg8
F304805.0
sg9
S'john.buchanan@enron.com'
p54
sg11
I0
sg12
F0.0
sg13
F0.0
sg14
I23
sg15
F0.0
sg16
I125
sg17
F1215.0
sg18
F0.0
sg19
F0.11488970588235294
sg20
F500000.0
sg21
F1014505.0
sg22
I0
sg23
F189041.0
sg24
F248017.0
sg25
F1054637.0
sg26
F825464.0
sg27
F0.0
ssS'MEYER ROCKFORD G'
p55
(dp56
g3
I232
sg4
F1848227.0
sg5
F0.0
sg6
F0.0
sg7
I00
sg8
F0.0
sg9
S'rockford.meyer@enron.com'
p57
sg11
I0
sg12
F0.0
sg13
F0.0
sg14
I22
sg15
F0.0
sg16
I28
sg17
F0.0
sg18
F0.0
sg19
F0.1206896551724138
sg20
F0.0
sg21
F955873.0
sg22
I0
sg23
F462384.0
sg24
F0.0
sg25
F1848227.0
sg26
F493489.0
sg27
F0.0
ssS'LEFF DANIEL P'
p58
(dp59
g3
I2822
sg4
F0.0
sg5
F0.004961020552799433
sg6
F0.0
sg7
I00
sg8
F1387399.0
sg9
S'dan.leff@enron.com'
p60
sg11
I67
sg12
F0.0
sg13
F0.0
sg14
I2672
sg15
F0.0
sg16
I63
sg17
F3083.0
sg18
F0.0
sg19
F0.02232459248759745
sg20
F1000000.0
sg21
F360528.0
sg22
I14
sg23
F360528.0
sg24
F273746.0
sg25
F2664228.0
sg26
F0.0
sg27
F1.0634920634920635
ssS'REDMOND BRIAN L'
p61
(dp62
g3
I1671
sg4
F0.0
sg5
F0.029323758228605626
sg6
F14689.0
sg7
I00
sg8
F0.0
sg9
S'brian.redmond@enron.com'
p63
sg11
I204
sg12
F0.0
sg13
F0.0
sg14
I1063
sg15
F0.0
sg16
I221
sg17
F0.0
sg18
F0.0
sg19
F0.1322561340514662
sg20
F0.0
sg21
F7890324.0
sg22
I49
sg23
F381285.0
sg24
F96840.0
sg25
F111529.0
sg26
F7509039.0
sg27
F0.9230769230769231
ssS'DURAN WILLIAM D'
p64
(dp65
g3
I904
sg4
F0.0
sg5
F0.00331858407079646
sg6
F25785.0
sg7
I00
sg8
F1105218.0
sg9
S'w.duran@enron.com'
p66
sg11
I106
sg12
F0.0
sg13
F0.0
sg14
I599
sg15
F0.0
sg16
I12
sg17
F1568.0
sg18
F0.0
sg19
F0.01327433628318584
sg20
F750000.0
sg21
F1640910.0
sg22
I3
sg23
F189041.0
sg24
F210692.0
sg25
F2093263.0
sg26
F1451869.0
sg27
F8.833333333333334
ssS'SHELBY REX'
p67
(dp68
g3
I225
sg4
F0.0
sg5
F0.06222222222222222
sg6
F22884.0
sg7
I01
sg8
F0.0
sg9
S'rex.shelby@enron.com'
p69
sg11
I13
sg12
F-4167.0
sg13
F0.0
sg14
I91
sg15
F0.0
sg16
I39
sg17
F1573324.0
sg18
F0.0
sg19
F0.17333333333333334
sg20
F200000.0
sg21
F2493616.0
sg22
I14
sg23
F869220.0
sg24
F211844.0
sg25
F2003885.0
sg26
F1624396.0
sg27
F0.3333333333333333
ssS'PIPER GREGORY F'
p70
(dp71
g3
I1238
sg4
F1130036.0
sg5
F0.03877221324717286
sg6
F43057.0
sg7
I00
sg8
F0.0
sg9
S'greg.piper@enron.com'
p72
sg11
I61
sg12
F-33333.0
sg13
F-409554.0
sg14
I742
sg15
F0.0
sg16
I222
sg17
F778.0
sg18
F0.0
sg19
F0.17932148626817448
sg20
F400000.0
sg21
F880290.0
sg22
I48
sg23
F409554.0
sg24
F197091.0
sg25
F1737629.0
sg26
F880290.0
sg27
F0.2747747747747748
ssS'HUMPHREY GENE E'
p73
(dp74
g3
I128
sg4
F2964506.0
sg5
F0.1328125
sg6
F4994.0
sg7
I00
sg8
F0.0
sg9
S'gene.humphrey@enron.com'
p75
sg11
I10
sg12
F0.0
sg13
F0.0
sg14
I119
sg15
F0.0
sg16
I17
sg17
F0.0
sg18
F0.0
sg19
F0.1328125
sg20
F0.0
sg21
F2282768.0
sg22
I17
sg23
F0.0
sg24
F130724.0
sg25
F3100224.0
sg26
F2282768.0
sg27
F0.5882352941176471
ssS'JACKSON CHARLENE R'
p76
(dp77
g3
I258
sg4
F0.0
sg5
F0.07364341085271318
sg6
F10181.0
sg7
I00
sg8
F0.0
sg9
S'charlene.jackson@enron.com'
p78
sg11
I25
sg12
F0.0
sg13
F0.0
sg14
I117
sg15
F0.0
sg16
I56
sg17
F2435.0
sg18
F0.0
sg19
F0.21705426356589147
sg20
F250000.0
sg21
F725735.0
sg22
I19
sg23
F540672.0
sg24
F288558.0
sg25
F551174.0
sg26
F185063.0
sg27
F0.44642857142857145
ssS'THORN TERENCE H'
p79
(dp80
g3
I266
sg4
F16586.0
sg5
F0.0
sg6
F46145.0
sg7
I00
sg8
F200000.0
sg9
S'terence.thorn@enron.com'
p81
sg11
I0
sg12
F0.0
sg13
F0.0
sg14
I73
sg15
F0.0
sg16
I41
sg17
F426629.0
sg18
F0.0
sg19
F0.15413533834586465
sg20
F0.0
sg21
F4817796.0
sg22
I0
sg23
F365320.0
sg24
F222093.0
sg25
F911453.0
sg26
F4452476.0
sg27
F0.0
ssS'MURRAY JULIA H'
p82
(dp83
g3
I2192
sg4
F0.0
sg5
F0.0009124087591240876
sg6
F57580.0
sg7
I00
sg8
F125000.0
sg9
S'julia.murray@enron.com'
p84
sg11
I11
sg12
F0.0
sg13
F0.0
sg14
I395
sg15
F0.0
sg16
I45
sg17
F330.0
sg18
F0.0
sg19
F0.02052919708029197
sg20
F400000.0
sg21
F597461.0
sg22
I2
sg23
F196983.0
sg24
F229284.0
sg25
F812194.0
sg26
F400478.0
sg27
F0.24444444444444444
ssS'GARLAND C KEVIN'
p85
(dp86
g3
I209
sg4
F0.0
sg5
F0.1291866028708134
sg6
F48405.0
sg7
I00
sg8
F375304.0
sg9
S'kevin.garland@enron.com'
p87
sg11
I10
sg12
F0.0
sg13
F0.0
sg14
I178
sg15
F0.0
sg16
I44
sg17
F60814.0
sg18
F0.0
sg19
F0.21052631578947367
sg20
F850000.0
sg21
F896153.0
sg22
I27
sg23
F259907.0
sg24
F231946.0
sg25
F1566469.0
sg26
F636246.0
sg27
F0.22727272727272727
ssS'BANNANTINE JAMES M'
p88
(dp89
g3
I566
sg4
F0.0
sg5
F0.0
sg6
F56301.0
sg7
I00
sg8
F0.0
sg9
S'james.bannantine@enron.com'
p90
sg11
I39
sg12
F-5104.0
sg13
F-560222.0
sg14
I465
sg15
F0.0
sg16
I29
sg17
F864523.0
sg18
F0.0
sg19
F0.05123674911660778
sg20
F0.0
sg21
F5243487.0
sg22
I0
sg23
F1757552.0
sg24
F477.0
sg25
F916197.0
sg26
F4046157.0
sg27
F1.3448275862068966
ssS'BLACHMAN JEREMY M'
p91
(dp92
g3
I2475
sg4
F0.0
sg5
F0.0008080808080808081
sg6
F84208.0
sg7
I00
sg8
F831809.0
sg9
S'jeremy.blachman@enron.com'
p93
sg11
I25
sg12
F0.0
sg13
F0.0
sg14
I2326
sg15
F0.0
sg16
I14
sg17
F272.0
sg18
F0.0
sg19
F0.0056565656565656566
sg20
F850000.0
sg21
F954354.0
sg22
I2
sg23
F189041.0
sg24
F248546.0
sg25
F2014835.0
sg26
F765313.0
sg27
F1.7857142857142858
ssS'DODSON KEITH'
p94
(dp95
g3
I176
sg4
F0.0
sg5
F0.017045454545454544
sg6
F28164.0
sg7
I00
sg8
F0.0
sg9
S'keith.dodson@enron.com'
p96
sg11
I10
sg12
F0.0
sg13
F0.0
sg14
I114
sg15
F0.0
sg16
I14
sg17
F774.0
sg18
F0.0
sg19
F0.07954545454545454
sg20
F70000.0
sg21
F0.0
sg22
I3
sg23
F0.0
sg24
F221003.0
sg25
F319941.0
sg26
F0.0
sg27
F0.7142857142857143
ssS'POWERS WILLIAM'
p97
(dp98
g3
I653
sg4
F0.0
sg5
F0.0
sg6
F0.0
sg7
I00
sg8
F0.0
sg9
S'ken.powers@enron.com'
p99
sg11
I0
sg12
F-17500.0
sg13
F0.0
sg14
I12
sg15
F0.0
sg16
I26
sg17
F0.0
sg18
F17500.0
sg19
F0.039816232771822356
sg20
F0.0
sg21
F0.0
sg22
I0
sg23
F0.0
sg24
F0.0
sg25
F0.0
sg26
F0.0
sg27
F0.0
ssS'BOWEN JR RAYMOND M'
p100
(dp101
g3
I1858
sg4
F0.0
sg5
F0.008073196986006458
sg6
F65907.0
sg7
I01
sg8
F974293.0
sg9
S'raymond.bowen@enron.com'
p102
sg11
I140
sg12
F-833.0
sg13
F0.0
sg14
I1593
sg15
F0.0
sg16
I27
sg17
F1621.0
sg18
F0.0
sg19
F0.014531754574811625
sg20
F1350000.0
sg21
F252055.0
sg22
I15
sg23
F252055.0
sg24
F278601.0
sg25
F2669589.0
sg26
F0.0
sg27
F5.185185185185185
ssS'SUNDE MARTIN'
p103
(dp104
g3
I2647
sg4
F0.0
sg5
F0.004911220249338874
sg6
F0.0
sg7
I00
sg8
F476451.0
sg9
S'marty.sunde@enron.com'
p105
sg11
I37
sg12
F0.0
sg13
F0.0
sg14
I2565
sg15
F0.0
sg16
I38
sg17
F111122.0
sg18
F0.0
sg19
F0.014355874574990555
sg20
F700000.0
sg21
F698920.0
sg22
I13
sg23
F698920.0
sg24
F257486.0
sg25
F1545059.0
sg26
F0.0
sg27
F0.9736842105263158
ssS'GIBBS DANA R'
p106
(dp107
g3
I169
sg4
F504610.0
sg5
F0.0
sg6
F0.0
sg7
I00
sg8
F461912.0
sg9
S'dana.gibbs@enron.com'
p108
sg11
I0
sg12
F0.0
sg13
F0.0
sg14
I23
sg15
F0.0
sg16
I12
sg17
F0.0
sg18
F0.0
sg19
F0.07100591715976332
sg20
F0.0
sg21
F2218275.0
sg22
I0
sg23
F0.0
sg24
F0.0
sg25
F966522.0
sg26
F2218275.0
sg27
F0.0
ssS'COLWELL WESLEY'
p109
(dp110
g3
I1758
sg4
F27610.0
sg5
F0.006257110352673493
sg6
F16514.0
sg7
I01
sg8
F0.0
sg9
S'wes.colwell@enron.com'
p111
sg11
I240
sg12
F-144062.0
sg13
F0.0
sg14
I1132
sg15
F0.0
sg16
I40
sg17
F101740.0
sg18
F0.0
sg19
F0.022753128555176336
sg20
F1200000.0
sg21
F698242.0
sg22
I11
sg23
F698242.0
sg24
F288542.0
sg25
F1490344.0
sg26
F0.0
sg27
F6.0
ssS'MULLER MARK S'
p112
(dp113
g3
I136
sg4
F842924.0
sg5
F0.0
sg6
F0.0
sg7
I00
sg8
F1725545.0
sg9
S's..muller@enron.com'
p114
sg11
I12
sg12
F-719000.0
sg13
F0.0
sg14
I114
sg15
F0.0
sg16
I16
sg17
F947.0
sg18
F0.0
sg19
F0.11764705882352941
sg20
F1100000.0
sg21
F1416848.0
sg22
I0
sg23
F360528.0
sg24
F251654.0
sg25
F3202070.0
sg26
F1056320.0
sg27
F0.75
ssS'WASAFF GEORGE'
p115
(dp116
g3
I400
sg4
F831299.0
sg5
F0.0175
sg6
F0.0
sg7
I00
sg8
F200000.0
sg9
S'george.wasaff@enron.com'
p117
sg11
I22
sg12
F-583325.0
sg13
F0.0
sg14
I337
sg15
F0.0
sg16
I30
sg17
F1425.0
sg18
F0.0
sg19
F0.075
sg20
F325000.0
sg21
F2056427.0
sg22
I7
sg23
F388167.0
sg24
F259996.0
sg25
F1034395.0
sg26
F1668260.0
sg27
F0.7333333333333333
ssS'DIETRICH JANET R'
p118
(dp119
g3
I2572
sg4
F0.0
sg5
F0.005443234836702955
sg6
F3475.0
sg7
I00
sg8
F556416.0
sg9
S'janet.dietrich@enron.com'
p120
sg11
I305
sg12
F0.0
sg13
F0.0
sg14
I1902
sg15
F0.0
sg16
I63
sg17
F473.0
sg18
F0.0
sg19
F0.024494556765163298
sg20
F600000.0
sg21
F1865087.0
sg22
I14
sg23
F315068.0
sg24
F250100.0
sg25
F1410464.0
sg26
F1550019.0
sg27
F4.841269841269841
ssS'DERRICK JR. JAMES V'
p121
(dp122
g3
I2181
sg4
F0.0
sg5
F0.009170105456212746
sg6
F51124.0
sg7
I00
sg8
F484000.0
sg9
S'james.derrick@enron.com'
p123
sg11
I64
sg12
F-1284000.0
sg13
F-1787380.0
sg14
I1401
sg15
F0.0
sg16
I909
sg17
F7482.0
sg18
F0.0
sg19
F0.4167812929848693
sg20
F800000.0
sg21
F8831913.0
sg22
I20
sg23
F1787380.0
sg24
F492375.0
sg25
F550981.0
sg26
F8831913.0
sg27
F0.0704070407040704
ssS'FREVERT MARK A'
p124
(dp125
g3
I3275
sg4
F6426990.0
sg5
F0.00183206106870229
sg6
F86987.0
sg7
I00
sg8
F1617011.0
sg9
S'mark.frevert@enron.com'
p126
sg11
I242
sg12
F-3367011.0
sg13
F0.0
sg14
I2979
sg15
F2000000.0
sg16
I21
sg17
F7427621.0
sg18
F0.0
sg19
F0.006412213740458015
sg20
F2000000.0
sg21
F14622185.0
sg22
I6
sg23
F4188667.0
sg24
F1060932.0
sg25
F17252530.0
sg26
F10433518.0
sg27
F11.523809523809524
ssS'RICE KENNETH D'
p127
(dp128
g3
I905
sg4
F0.0
sg5
F0.004419889502762431
sg6
F46950.0
sg7
I01
sg8
F1617011.0
sg9
S'ken.rice@enron.com'
p129
sg11
I42
sg12
F-3504386.0
sg13
F0.0
sg14
I864
sg15
F0.0
sg16
I18
sg17
F174839.0
sg18
F0.0
sg19
F0.019889502762430938
sg20
F1750000.0
sg21
F22542539.0
sg22
I4
sg23
F2748364.0
sg24
F420636.0
sg25
F505050.0
sg26
F19794175.0
sg27
F2.3333333333333335
ssS'DEFFNER JOSEPH M'
p130
(dp131
g3
I714
sg4
F0.0
sg5
F0.0056022408963585435
sg6
F41626.0
sg7
I00
sg8
F335349.0
sg9
S'joseph.deffner@enron.com'
p132
sg11
I115
sg12
F0.0
sg13
F0.0
sg14
I552
sg15
F0.0
sg16
I74
sg17
F25553.0
sg18
F0.0
sg19
F0.10364145658263306
sg20
F600000.0
sg21
F159211.0
sg22
I4
sg23
F141833.0
sg24
F206121.0
sg25
F1208649.0
sg26
F17378.0
sg27
F1.554054054054054
ssS'SHERRIFF JOHN R'
p133
(dp134
g3
I3187
sg4
F0.0
sg5
F0.0072168183244430495
sg6
F0.0
sg7
I00
sg8
F554422.0
sg9
S'john.sherriff@enron.com'
p135
sg11
I28
sg12
F0.0
sg13
F0.0
sg14
I2103
sg15
F0.0
sg16
I92
sg17
F1852186.0
sg18
F0.0
sg19
F0.028867273297772198
sg20
F1500000.0
sg21
F3128982.0
sg22
I23
sg23
F1293424.0
sg24
F428780.0
sg25
F4335388.0
sg26
F1835558.0
sg27
F0.30434782608695654
ssS'WALLS JR ROBERT H'
p136
(dp137
g3
I671
sg4
F0.0
sg5
F0.0
sg6
F50936.0
sg7
I00
sg8
F540751.0
sg9
S'rob.walls@enron.com'
p138
sg11
I17
sg12
F0.0
sg13
F0.0
sg14
I215
sg15
F0.0
sg16
I146
sg17
F2.0
sg18
F0.0
sg19
F0.21758569299552907
sg20
F850000.0
sg21
F5898997.0
sg22
I0
sg23
F1552453.0
sg24
F357091.0
sg25
F1798780.0
sg26
F4346544.0
sg27
F0.11643835616438356
ssS'SKILLING JEFFREY K'
p139
(dp140
g3
I3627
sg4
F0.0
sg5
F0.008271298593879239
sg6
F29336.0
sg7
I01
sg8
F1920000.0
sg9
S'jeff.skilling@enron.com'
p141
sg11
I88
sg12
F0.0
sg13
F0.0
sg14
I2042
sg15
F0.0
sg16
I108
sg17
F22122.0
sg18
F0.0
sg19
F0.02977667493796526
sg20
F5600000.0
sg21
F26093672.0
sg22
I30
sg23
F6843672.0
sg24
F1111258.0
sg25
F8682716.0
sg26
F19250000.0
sg27
F0.8148148148148148
ssS'COX DAVID'
p142
(dp143
g3
I102
sg4
F0.0
sg5
F0.0392156862745098
sg6
F27861.0
sg7
I00
sg8
F0.0
sg9
S'chip.cox@enron.com'
p144
sg11
I0
sg12
F-41250.0
sg13
F0.0
sg14
I71
sg15
F0.0
sg16
I33
sg17
F494.0
sg18
F0.0
sg19
F0.3235294117647059
sg20
F800000.0
sg21
F495633.0
sg22
I4
sg23
F378082.0
sg24
F314288.0
sg25
F1101393.0
sg26
F117551.0
sg27
F0.0
ssS'MCMAHON JEFFREY'
p145
(dp146
g3
I2355
sg4
F0.0
sg5
F0.011040339702760084
sg6
F137108.0
sg7
I00
sg8
F694862.0
sg9
S'jeffrey.mcmahon@enron.com'
p147
sg11
I58
sg12
F0.0
sg13
F0.0
sg14
I2228
sg15
F0.0
sg16
I48
sg17
F297353.0
sg18
F0.0
sg19
F0.02038216560509554
sg20
F2600000.0
sg21
F1662855.0
sg22
I26
sg23
F558801.0
sg24
F370448.0
sg25
F4099771.0
sg26
F1104054.0
sg27
F1.2083333333333333
ssS'PIRO JIM'
p148
(dp149
g3
I58
sg4
F0.0
sg5
F0.017241379310344827
sg6
F0.0
sg7
I00
sg8
F0.0
sg9
S'jim.piro@enron.com'
p150
sg11
I0
sg12
F0.0
sg13
F0.0
sg14
I3
sg15
F0.0
sg16
I16
sg17
F0.0
sg18
F0.0
sg19
F0.27586206896551724
sg20
F0.0
sg21
F47304.0
sg22
I1
sg23
F47304.0
sg24
F0.0
sg25
F0.0
sg26
F0.0
sg27
F0.0
ssS'BERGSIEKER RICHARD P'
p151
(dp152
g3
I383
sg4
F0.0
sg5
F0.0
sg6
F59175.0
sg7
I00
sg8
F180250.0
sg9
S'rick.bergsieker@enron.com'
p153
sg11
I4
sg12
F-485813.0
sg13
F0.0
sg14
I233
sg15
F0.0
sg16
I59
sg17
F427316.0
sg18
F0.0
sg19
F0.15404699738903394
sg20
F250000.0
sg21
F659249.0
sg22
I0
sg23
F659249.0
sg24
F187922.0
sg25
F618850.0
sg26
F0.0
sg27
F0.06779661016949153
ssS'MCCARTY DANNY J'
p154
(dp155
g3
I1433
sg4
F0.0
sg5
F0.0013956734124214933
sg6
F0.0
sg7
I00
sg8
F0.0
sg9
S'danny.mccarty@enron.com'
p156
sg11
I25
sg12
F0.0
sg13
F0.0
sg14
I508
sg15
F0.0
sg16
I215
sg17
F0.0
sg18
F0.0
sg19
F0.15003489183531055
sg20
F0.0
sg21
F758931.0
sg22
I2
sg23
F94556.0
sg24
F0.0
sg25
F0.0
sg26
F664375.0
sg27
F0.11627906976744186
ssS'MORAN MICHAEL P'
p157
(dp158
g3
I672
sg4
F0.0
sg5
F0.0
sg6
F0.0
sg7
I00
sg8
F0.0
sg9
S'michael.moran@enron.com'
p159
sg11
I0
sg12
F0.0
sg13
F0.0
sg14
I127
sg15
F0.0
sg16
I19
sg17
F0.0
sg18
F0.0
sg19
F0.028273809523809524
sg20
F0.0
sg21
F221141.0
sg22
I0
sg23
F161602.0
sg24
F0.0
sg25
F0.0
sg26
F59539.0
sg27
F0.0
ssS'BIBI PHILIPPE A'
p160
(dp161
g3
I1607
sg4
F0.0
sg5
F0.004978220286247666
sg6
F38559.0
sg7
I00
sg8
F369721.0
sg9
S'philippe.bibi@enron.com'
p162
sg11
I23
sg12
F0.0
sg13
F0.0
sg14
I1336
sg15
F0.0
sg16
I40
sg17
F425688.0
sg18
F0.0
sg19
F0.024891101431238332
sg20
F1000000.0
sg21
F1843816.0
sg22
I8
sg23
F378082.0
sg24
F213625.0
sg25
F2047593.0
sg26
F1465734.0
sg27
F0.575
ssS'FALLON JAMES B'
p163
(dp164
g3
I1755
sg4
F0.0
sg5
F0.021082621082621083
sg6
F95924.0
sg7
I00
sg8
F374347.0
sg9
S'jim.fallon@enron.com'
p165
sg11
I42
sg12
F0.0
sg13
F0.0
sg14
I1604
sg15
F0.0
sg16
I75
sg17
F401481.0
sg18
F0.0
sg19
F0.042735042735042736
sg20
F2500000.0
sg21
F2332399.0
sg22
I37
sg23
F1392142.0
sg24
F304588.0
sg25
F3676340.0
sg26
F940257.0
sg27
F0.56
ssS'KOENIG MARK E'
p166
(dp167
g3
I2374
sg4
F0.0
sg5
F0.006318449873631003
sg6
F127017.0
sg7
I01
sg8
F300000.0
sg9
S'mark.koenig@enron.com'
p168
sg11
I53
sg12
F0.0
sg13
F0.0
sg14
I2271
sg15
F0.0
sg16
I61
sg17
F150458.0
sg18
F0.0
sg19
F0.025695029486099412
sg20
F700000.0
sg21
F1920055.0
sg22
I15
sg23
F1248318.0
sg24
F309946.0
sg25
F1587421.0
sg26
F671737.0
sg27
F0.8688524590163934
ssS'PICKERING MARK R'
p169
(dp170
g3
I898
sg4
F0.0
sg5
F0.0
sg6
F31653.0
sg7
I00
sg8
F0.0
sg9
S'mark.pickering@enron.com'
p171
sg11
I7
sg12
F0.0
sg13
F0.0
sg14
I728
sg15
F400000.0
sg16
I67
sg17
F0.0
sg18
F0.0
sg19
F0.07461024498886415
sg20
F300000.0
sg21
F28798.0
sg22
I0
sg23
F0.0
sg24
F655037.0
sg25
F1386690.0
sg26
F28798.0
sg27
F0.1044776119402985
ssS'IZZO LAWRENCE L'
p172
(dp173
g3
I496
sg4
F0.0
sg5
F0.010080645161290322
sg6
F28093.0
sg7
I00
sg8
F312500.0
sg9
S'larry.izzo@enron.com'
p174
sg11
I28
sg12
F0.0
sg13
F0.0
sg14
I437
sg15
F0.0
sg16
I19
sg17
F1553729.0
sg18
F0.0
sg19
F0.038306451612903226
sg20
F0.0
sg21
F5819980.0
sg22
I5
sg23
F3654808.0
sg24
F85274.0
sg25
F1979596.0
sg26
F2165172.0
sg27
F1.4736842105263157
ssS'UMANOFF ADAM S'
p175
(dp176
g3
I111
sg4
F0.0
sg5
F0.0
sg6
F53122.0
sg7
I00
sg8
F0.0
sg9
S'adam.umanoff@enron.com'
p177
sg11
I12
sg12
F0.0
sg13
F0.0
sg14
I41
sg15
F0.0
sg16
I18
sg17
F0.0
sg18
F0.0
sg19
F0.16216216216216217
sg20
F788750.0
sg21
F0.0
sg22
I0
sg23
F0.0
sg24
F288589.0
sg25
F1130461.0
sg26
F0.0
sg27
F0.6666666666666666
ssS'FOY JOE'
p178
(dp179
g3
I57
sg4
F181755.0
sg5
F0.0
sg6
F0.0
sg7
I00
sg8
F0.0
sg9
S'tracy.foy@enron.com'
p180
sg11
I0
sg12
F0.0
sg13
F0.0
sg14
I2
sg15
F0.0
sg16
I13
sg17
F0.0
sg18
F0.0
sg19
F0.22807017543859648
sg20
F0.0
sg21
F343434.0
sg22
I0
sg23
F0.0
sg24
F0.0
sg25
F181755.0
sg26
F343434.0
sg27
F0.0
ssS'DONAHUE JR JEFFREY M'
p181
(dp182
g3
I865
sg4
F0.0
sg5
F0.012716763005780347
sg6
F96268.0
sg7
I00
sg8
F0.0
sg9
S'jeff.donahue@enron.com'
p183
sg11
I188
sg12
F-300000.0
sg13
F0.0
sg14
I772
sg15
F0.0
sg16
I22
sg17
F891.0
sg18
F0.0
sg19
F0.025433526011560695
sg20
F800000.0
sg21
F1080988.0
sg22
I11
sg23
F315068.0
sg24
F278601.0
sg25
F875760.0
sg26
F765920.0
sg27
F8.545454545454545
ssS'TILNEY ELIZABETH A'
p184
(dp185
g3
I460
sg4
F0.0
sg5
F0.02391304347826087
sg6
F0.0
sg7
I00
sg8
F275000.0
sg9
S'elizabeth.tilney@enron.com'
p186
sg11
I10
sg12
F-575000.0
sg13
F0.0
sg14
I379
sg15
F0.0
sg16
I19
sg17
F152055.0
sg18
F0.0
sg19
F0.041304347826086954
sg20
F300000.0
sg21
F1168042.0
sg22
I11
sg23
F576792.0
sg24
F247338.0
sg25
F399393.0
sg26
F591250.0
sg27
F0.5263157894736842
ssS'MARTIN AMANDA K'
p187
(dp188
g3
I1522
sg4
F85430.0
sg5
F0.0
sg6
F8211.0
sg7
I00
sg8
F5145434.0
sg9
S'a..martin@enron.com'
p189
sg11
I8
sg12
F0.0
sg13
F0.0
sg14
I477
sg15
F0.0
sg16
I230
sg17
F2818454.0
sg18
F0.0
sg19
F0.15111695137976347
sg20
F0.0
sg21
F2070306.0
sg22
I0
sg23
F0.0
sg24
F349487.0
sg25
F8407016.0
sg26
F2070306.0
sg27
F0.034782608695652174
ssS'SHERRICK JEFFREY B'
p190
(dp191
g3
I613
sg4
F0.0
sg5
F0.02936378466557912
sg6
F0.0
sg7
I00
sg8
F0.0
sg9
S'jeffrey.sherrick@enron.com'
p192
sg11
I39
sg12
F0.0
sg13
F0.0
sg14
I583
sg15
F0.0
sg16
I25
sg17
F0.0
sg18
F0.0
sg19
F0.040783034257748776
sg20
F0.0
sg21
F1832468.0
sg22
I18
sg23
F405999.0
sg24
F0.0
sg25
F0.0
sg26
F1426469.0
sg27
F1.56
ssS'LAY KENNETH L'
p193
(dp194
g3
I4273
sg4
F202911.0
sg5
F0.003744441844137608
sg6
F99832.0
sg7
I01
sg8
F3600000.0
sg9
S'kenneth.lay@enron.com'
p195
sg11
I123
sg12
F-300000.0
sg13
F0.0
sg14
I2411
sg15
F81525000.0
sg16
I36
sg17
F10359729.0
sg18
F0.0
sg19
F0.008424994149309618
sg20
F7000000.0
sg21
F49110078.0
sg22
I16
sg23
F14761694.0
sg24
F1072321.0
sg25
F103559793.0
sg26
F34348384.0
sg27
F3.4166666666666665
ssS'FOWLER PEGGY'
p196
(dp197
g3
I517
sg4
F0.0
sg5
F0.0
sg6
F0.0
sg7
I00
sg8
F0.0
sg9
S'kulvinder.fowler@enron.com'
p198
sg11
I0
sg12
F0.0
sg13
F0.0
sg14
I10
sg15
F0.0
sg16
I36
sg17
F0.0
sg18
F0.0
sg19
F0.06963249516441006
sg20
F0.0
sg21
F1884748.0
sg22
I0
sg23
F560170.0
sg24
F0.0
sg25
F0.0
sg26
F1324578.0
sg27
F0.0
ssS'OLSON CINDY K'
p199
(dp200
g3
I1184
sg4
F77716.0
sg5
F0.01266891891891892
sg6
F63791.0
sg7
I00
sg8
F100000.0
sg9
S'cindy.olson@enron.com'
p201
sg11
I20
sg12
F0.0
sg13
F0.0
sg14
I856
sg15
F0.0
sg16
I52
sg17
F972.0
sg18
F0.0
sg19
F0.04391891891891892
sg20
F750000.0
sg21
F2606763.0
sg22
I15
sg23
F969729.0
sg24
F329078.0
sg25
F1321557.0
sg26
F1637034.0
sg27
F0.38461538461538464
ssS'HAUG DAVID L'
p202
(dp203
g3
I573
sg4
F0.0
sg5
F0.012216404886561954
sg6
F475.0
sg7
I00
sg8
F0.0
sg9
S'david.haug@enron.com'
p204
sg11
I4
sg12
F0.0
sg13
F0.0
sg14
I471
sg15
F0.0
sg16
I19
sg17
F0.0
sg18
F0.0
sg19
F0.03315881326352531
sg20
F0.0
sg21
F2217299.0
sg22
I7
sg23
F2217299.0
sg24
F0.0
sg25
F475.0
sg26
F0.0
sg27
F0.21052631578947367
ssS'MCDONALD REBECCA'
p205
(dp206
g3
I894
sg4
F0.0
sg5
F0.0011185682326621924
sg6
F0.0
sg7
I00
sg8
F0.0
sg9
S'rebecca.mcdonald@enron.com'
p207
sg11
I54
sg12
F0.0
sg13
F0.0
sg14
I720
sg15
F0.0
sg16
I13
sg17
F0.0
sg18
F0.0
sg19
F0.0145413870246085
sg20
F0.0
sg21
F1691366.0
sg22
I1
sg23
F934065.0
sg24
F0.0
sg25
F0.0
sg26
F757301.0
sg27
F4.153846153846154
ssS'CAUSEY RICHARD A'
p208
(dp209
g3
I1892
sg4
F0.0
sg5
F0.006342494714587738
sg6
F30674.0
sg7
I01
sg8
F350000.0
sg9
S'richard.causey@enron.com'
p210
sg11
I58
sg12
F-235000.0
sg13
F0.0
sg14
I1585
sg15
F0.0
sg16
I49
sg17
F307895.0
sg18
F0.0
sg19
F0.025898520084566595
sg20
F1000000.0
sg21
F2502063.0
sg22
I12
sg23
F2502063.0
sg24
F415189.0
sg25
F1868758.0
sg26
F0.0
sg27
F1.183673469387755
ssS'SHARP VICTORIA T'
p211
(dp212
g3
I3136
sg4
F187469.0
sg5
F0.001913265306122449
sg6
F116337.0
sg7
I00
sg8
F422158.0
sg9
S'vicki.sharp@enron.com'
p213
sg11
I24
sg12
F0.0
sg13
F0.0
sg14
I2477
sg15
F0.0
sg16
I136
sg17
F2401.0
sg18
F0.0
sg19
F0.04336734693877551
sg20
F600000.0
sg21
F494136.0
sg22
I6
sg23
F213063.0
sg24
F248146.0
sg25
F1576511.0
sg26
F281073.0
sg27
F0.17647058823529413
ssS'HICKERSON GARY J'
p214
(dp215
g3
I1320
sg4
F0.0
sg5
F0.0007575757575757576
sg6
F98849.0
sg7
I00
sg8
F69223.0
sg9
S'gary.hickerson@enron.com'
p216
sg11
I40
sg12
F0.0
sg13
F0.0
sg14
I900
sg15
F0.0
sg16
I27
sg17
F1936.0
sg18
F0.0
sg19
F0.020454545454545454
sg20
F1700000.0
sg21
F441096.0
sg22
I1
sg23
F441096.0
sg24
F211788.0
sg25
F2081796.0
sg26
F0.0
sg27
F1.4814814814814814
ssS'MCCLELLAN GEORGE'
p217
(dp218
g3
I1744
sg4
F0.0
sg5
F0.0
sg6
F228763.0
sg7
I00
sg8
F0.0
sg9
S'george.mcclellan@enron.com'
p219
sg11
I52
sg12
F-125000.0
sg13
F0.0
sg14
I1469
sg15
F0.0
sg16
I49
sg17
F51587.0
sg18
F0.0
sg19
F0.02809633027522936
sg20
F900000.0
sg21
F947861.0
sg22
I0
sg23
F441096.0
sg24
F263413.0
sg25
F1318763.0
sg26
F506765.0
sg27
F1.0612244897959184
ssS'TAYLOR MITCHELL S'
p220
(dp221
g3
I533
sg4
F227449.0
sg5
F0.0
sg6
F0.0
sg7
I00
sg8
F0.0
sg9
S'mitchell.taylor@enron.com'
p222
sg11
I0
sg12
F0.0
sg13
F0.0
sg14
I300
sg15
F0.0
sg16
I29
sg17
F0.0
sg18
F0.0
sg19
F0.054409005628517824
sg20
F600000.0
sg21
F3745048.0
sg22
I0
sg23
F563798.0
sg24
F265214.0
sg25
F1092663.0
sg26
F3181250.0
sg27
F0.0
ssS'BROWN MICHAEL'
p223
(dp224
g3
I1486
sg4
F0.0
sg5
F0.0006729475100942127
sg6
F49288.0
sg7
I00
sg8
F0.0
sg9
S'michael.brown@enron.com'
p225
sg11
I13
sg12
F0.0
sg13
F0.0
sg14
I761
sg15
F0.0
sg16
I41
sg17
F0.0
sg18
F0.0
sg19
F0.02759084791386272
sg20
F0.0
sg21
F0.0
sg22
I1
sg23
F0.0
sg24
F0.0
sg25
F49288.0
sg26
F0.0
sg27
F0.3170731707317073
ssS'HUGHES JAMES A'
p226
(dp227
g3
I719
sg4
F0.0
sg5
F0.006954102920723227
sg6
F0.0
sg7
I00
sg8
F0.0
sg9
S'james.hughes@enron.com'
p228
sg11
I35
sg12
F0.0
sg13
F0.0
sg14
I589
sg15
F0.0
sg16
I34
sg17
F0.0
sg18
F0.0
sg19
F0.04728789986091794
sg20
F0.0
sg21
F1118394.0
sg22
I5
sg23
F363428.0
sg24
F0.0
sg25
F0.0
sg26
F754966.0
sg27
F1.0294117647058822
ssS'GLISAN JR BEN F'
p229
(dp230
g3
I873
sg4
F0.0
sg5
F0.006872852233676976
sg6
F125978.0
sg7
I01
sg8
F71023.0
sg9
S'ben.glisan@enron.com'
p231
sg11
I52
sg12
F0.0
sg13
F0.0
sg14
I874
sg15
F0.0
sg16
I16
sg17
F200308.0
sg18
F0.0
sg19
F0.018327605956471937
sg20
F600000.0
sg21
F778546.0
sg22
I6
sg23
F393818.0
sg24
F274975.0
sg25
F1272284.0
sg26
F384728.0
sg27
F3.25
ssS'CARTER REBECCA C'
p232
(dp233
g3
I312
sg4
F0.0
sg5
F0.022435897435897436
sg6
F0.0
sg7
I00
sg8
F75000.0
sg9
S'rebecca.carter@enron.com'
p234
sg11
I29
sg12
F-159792.0
sg13
F-307301.0
sg14
I196
sg15
F0.0
sg16
I15
sg17
F540.0
sg18
F0.0
sg19
F0.04807692307692308
sg20
F300000.0
sg21
F0.0
sg22
I7
sg23
F307301.0
sg24
F261809.0
sg25
F477557.0
sg26
F0.0
sg27
F1.9333333333333333
ss.