cnumpy.core.multiarray
_reconstruct
p0
(cnumpy
ndarray
p1
(I0
tp2
S'b'
p3
tp4
Rp5
(I1
(I11
tp6
cnumpy
dtype
p7
(S'O8'
p8
I0
I1
tp9
Rp10
(I3
S'|'
p11
NNNI-1
I-1
I63
tp12
bI00
(lp13
S'poi'
p14
aS'salary'
p15
aS'exercised_stock_options'
p16
aS'bonus'
p17
aS'restricted_stock'
p18
aS'shared_receipt_with_poi'
p19
aS'total_stock_value'
p20
aS'deferred_income'
p21
aS'from_message_poi_ratio'
p22
aS'message_in_out_ratio'
p23
aS'to_message_poi_ratio'
p24
atp25
b.